target datalayout = "e-m:e-p270:32:32-p271:32:32-p272:64:64-i64:64-i128:128-f80:128-n8:16:32:64-S128"
target triple = "x86_64-pc-linux-gnu"

%struct.Curl_sockaddr_ex = type { i32, i32, i32, i32, %union.anon }
%union.anon = type { %struct.Curl_sockaddr_storage }
%struct.Curl_sockaddr_storage = type { %union.anon.0 }
%union.anon.0 = type { %struct.sockaddr_storage }
%struct.sockaddr_storage = type { i16, [118 x i8], i64 }
%struct.Curl_llist_element = type { ptr, ptr, ptr }
%struct.curltime = type { i64, i32 }
%struct.ssl_primary_config = type { ptr, ptr, ptr, ptr, ptr, ptr, ptr, ptr, ptr, ptr, ptr, ptr, i8, i32, i8, i8 }
%struct.dynbuf = type { ptr, i64, i64, i64 }
%struct.Curl_llist = type { ptr, ptr, ptr, i64 }
%struct.connectdata = type { %struct.Curl_llist_element, ptr, ptr, i64, ptr, ptr, %struct.hostname, ptr, ptr, %struct.hostname, %struct.proxy_info, %struct.proxy_info, [46 x i8], ptr, ptr, ptr, ptr, ptr, %struct.curltime, %struct.curltime, %struct.curltime, [2 x i32], [2 x ptr], [2 x ptr], [2 x ptr], %struct.ssl_primary_config, %struct.ssl_primary_config, %struct.ConnectBits, ptr, ptr, %struct.curltime, i32, i32, %struct.Curl_llist, ptr, ptr, i32, i32, %struct.ntlmdata, %struct.ntlmdata, %union.anon.2, ptr, ptr, i16, i32, i32, i32, i32, i32, i16, i16, i8, i8, i8, i8, i8, i8, i8 }
%struct.hostname = type { ptr, ptr, ptr, ptr }
%struct.proxy_info = type { %struct.hostname, i32, i8, ptr, ptr }
%struct.ConnectBits = type { i32 }
%struct.ntlmdata = type { i32, [8 x i8], i32, ptr }
%union.anon.2 = type { %struct.ftp_conn }
%struct.ftp_conn = type { %struct.pingpong, ptr, ptr, ptr, ptr, ptr, ptr, ptr, i8, i64, ptr, i64, i32, i32, i32, i32, i32, i16, i8, i8, i8, i8, i8 }
%struct.pingpong = type { i64, i8, ptr, i64, i64, %struct.curltime, i64, %struct.dynbuf, %struct.dynbuf, i64, i64, ptr, ptr }
%struct.Curl_cfilter = type { ptr, ptr, ptr, ptr, i32, i8 }
%struct.cf_socket_ctx = type { i32, %struct.Curl_sockaddr_ex, i32, %struct.bufq, [46 x i8], i32, [46 x i8], i32, %struct.curltime, %struct.curltime, %struct.curltime, i32, i8 }
%struct.bufq = type { ptr, ptr, ptr, ptr, i64, i64, i64, i32 }

; Function Attrs: nounwind uwtable
define internal void @conn_set_primary_ip(ptr noundef %0, ptr noundef %1) #0 {
  %3 = alloca ptr, align 8
  %4 = alloca ptr, align 8
  %5 = alloca ptr, align 8
  store ptr %0, ptr %3, align 8
  store ptr %1, ptr %4, align 8
  %6 = load ptr, ptr %3, align 8
  %7 = getelementptr inbounds %struct.Curl_cfilter, ptr %6, i32 0, i32 2
  %8 = load ptr, ptr %7, align 8
  store ptr %8, ptr %5, align 8
  br label %9

9:                                                ; preds = %2
  br label %10

10:                                               ; preds = %9
  %11 = load ptr, ptr %3, align 8
  %12 = getelementptr inbounds %struct.Curl_cfilter, ptr %11, i32 0, i32 3
  %13 = load ptr, ptr %12, align 8
  %14 = getelementptr inbounds %struct.connectdata, ptr %13, i32 0, i32 12
  %15 = getelementptr inbounds [46 x i8], ptr %14, i64 0, i64 0
  %16 = load ptr, ptr %5, align 8
  %17 = getelementptr inbounds %struct.cf_socket_ctx, ptr %16, i32 0, i32 4
  %18 = getelementptr inbounds [46 x i8], ptr %17, i64 0, i64 0
  call void @llvm.memcpy.p0.p0.i64(ptr align 8 %15, ptr align 8 %18, i64 46, i1 false)
  ret void
}

; Function Attrs: nounwind uwtable
define internal void @cf_socket_active(ptr noundef %0, ptr noundef %1) #0 {
  %3 = alloca ptr, align 8
  %4 = alloca ptr, align 8
  %5 = alloca ptr, align 8
  store ptr %0, ptr %3, align 8
  store ptr %1, ptr %4, align 8
  %6 = load ptr, ptr %3, align 8
  %7 = getelementptr inbounds %struct.Curl_cfilter, ptr %6, i32 0, i32 2
  %8 = load ptr, ptr %7, align 8
  store ptr %8, ptr %5, align 8
  %9 = load ptr, ptr %5, align 8
  %10 = getelementptr inbounds %struct.cf_socket_ctx, ptr %9, i32 0, i32 2
  %11 = load i32, ptr %10, align 8
  %12 = load ptr, ptr %3, align 8
  %13 = getelementptr inbounds %struct.Curl_cfilter, ptr %12, i32 0, i32 3
  %14 = load ptr, ptr %13, align 8
  %15 = getelementptr inbounds %struct.connectdata, ptr %14, i32 0, i32 21
  %16 = load ptr, ptr %3, align 8
  %17 = getelementptr inbounds %struct.Curl_cfilter, ptr %16, i32 0, i32 4
  %18 = load i32, ptr %17, align 8
  %19 = sext i32 %18 to i64
  %20 = getelementptr inbounds [2 x i32], ptr %15, i64 0, i64 %19
  store i32 %11, ptr %20, align 4
  %21 = load ptr, ptr %3, align 8
  %22 = getelementptr inbounds %struct.Curl_cfilter, ptr %21, i32 0, i32 4
  %23 = load i32, ptr %22, align 8
  %24 = icmp eq i32 %23, 0
  br i1 %24, label %25, label %67

25:                                               ; preds = %2
  %26 = load ptr, ptr %5, align 8
  %27 = getelementptr inbounds %struct.cf_socket_ctx, ptr %26, i32 0, i32 1
  %28 = load ptr, ptr %3, align 8
  %29 = getelementptr inbounds %struct.Curl_cfilter, ptr %28, i32 0, i32 3
  %30 = load ptr, ptr %29, align 8
  %31 = getelementptr inbounds %struct.connectdata, ptr %30, i32 0, i32 5
  store ptr %27, ptr %31, align 8
  %32 = load ptr, ptr %5, align 8
  %33 = getelementptr inbounds %struct.cf_socket_ctx, ptr %32, i32 0, i32 1
  %34 = getelementptr inbounds %struct.Curl_sockaddr_ex, ptr %33, i32 0, i32 0
  %35 = load i32, ptr %34, align 8
  %36 = icmp eq i32 %35, 10
  %37 = select i1 %36, i32 1, i32 0
  %38 = load ptr, ptr %3, align 8
  %39 = getelementptr inbounds %struct.Curl_cfilter, ptr %38, i32 0, i32 3
  %40 = load ptr, ptr %39, align 8
  %41 = getelementptr inbounds %struct.connectdata, ptr %40, i32 0, i32 27
  %42 = load i32, ptr %41, align 8
  %43 = and i32 %37, 1
  %44 = shl i32 %43, 12
  %45 = and i32 %42, -4097
  %46 = or i32 %45, %44
  store i32 %46, ptr %41, align 8
  %47 = load ptr, ptr %3, align 8
  %48 = load ptr, ptr %4, align 8
  call void @conn_set_primary_ip(ptr noundef %47, ptr noundef %48)
  %49 = load ptr, ptr %3, align 8
  %50 = load ptr, ptr %4, align 8
  %51 = call i32 @set_local_ip(ptr noundef %49, ptr noundef %50)
  %52 = load ptr, ptr %4, align 8
  %53 = load ptr, ptr %3, align 8
  %54 = getelementptr inbounds %struct.Curl_cfilter, ptr %53, i32 0, i32 3
  %55 = load ptr, ptr %54, align 8
  %56 = load ptr, ptr %5, align 8
  %57 = getelementptr inbounds %struct.cf_socket_ctx, ptr %56, i32 0, i32 6
  %58 = getelementptr inbounds [46 x i8], ptr %57, i64 0, i64 0
  %59 = load ptr, ptr %5, align 8
  %60 = getelementptr inbounds %struct.cf_socket_ctx, ptr %59, i32 0, i32 7
  %61 = load i32, ptr %60, align 4
  call void @Curl_persistconninfo(ptr noundef %52, ptr noundef %55, ptr noundef %58, i32 noundef %61)
  %62 = load ptr, ptr %5, align 8
  %63 = getelementptr inbounds %struct.cf_socket_ctx, ptr %62, i32 0, i32 12
  %64 = load i8, ptr %63, align 4
  %65 = and i8 %64, -17
  %66 = or i8 %65, 0
  store i8 %66, ptr %63, align 4
  br label %67

67:                                               ; preds = %25, %2
  %68 = load ptr, ptr %5, align 8
  %69 = getelementptr inbounds %struct.cf_socket_ctx, ptr %68, i32 0, i32 12
  %70 = load i8, ptr %69, align 4
  %71 = and i8 %70, -9
  %72 = or i8 %71, 8
  store i8 %72, ptr %69, align 4
  ret void
}

; Function Attrs: nounwind uwtable
define internal i32 @cf_socket_cntrl(ptr noundef %0, ptr noundef %1, i32 noundef %2, i32 noundef %3, ptr noundef %4) #0 {
  %6 = alloca ptr, align 8
  %7 = alloca ptr, align 8
  %8 = alloca i32, align 4
  %9 = alloca i32, align 4
  %10 = alloca ptr, align 8
  %11 = alloca ptr, align 8
  store ptr %0, ptr %6, align 8
  store ptr %1, ptr %7, align 8
  store i32 %2, ptr %8, align 4
  store i32 %3, ptr %9, align 4
  store ptr %4, ptr %10, align 8
  %12 = load ptr, ptr %6, align 8
  %13 = getelementptr inbounds %struct.Curl_cfilter, ptr %12, i32 0, i32 2
  %14 = load ptr, ptr %13, align 8
  store ptr %14, ptr %11, align 8
  %15 = load i32, ptr %8, align 4
  switch i32 %15, label %33 [
    i32 256, label %16
    i32 4, label %19
    i32 257, label %30
  ]

16:                                               ; preds = %5
  %17 = load ptr, ptr %6, align 8
  %18 = load ptr, ptr %7, align 8
  call void @cf_socket_active(ptr noundef %17, ptr noundef %18)
  br label %33

19:                                               ; preds = %5
  %20 = load ptr, ptr %7, align 8
  %21 = load ptr, ptr %6, align 8
  %22 = getelementptr inbounds %struct.Curl_cfilter, ptr %21, i32 0, i32 3
  %23 = load ptr, ptr %22, align 8
  %24 = load ptr, ptr %11, align 8
  %25 = getelementptr inbounds %struct.cf_socket_ctx, ptr %24, i32 0, i32 6
  %26 = getelementptr inbounds [46 x i8], ptr %25, i64 0, i64 0
  %27 = load ptr, ptr %11, align 8
  %28 = getelementptr inbounds %struct.cf_socket_ctx, ptr %27, i32 0, i32 7
  %29 = load i32, ptr %28, align 4
  call void @Curl_persistconninfo(ptr noundef %20, ptr noundef %23, ptr noundef %26, i32 noundef %29)
  br label %33

30:                                               ; preds = %5
  %31 = load ptr, ptr %11, align 8
  %32 = getelementptr inbounds %struct.cf_socket_ctx, ptr %31, i32 0, i32 2
  store i32 -1, ptr %32, align 8
  br label %33

33:                                               ; preds = %30, %19, %16, %5
  ret i32 0
}