; Function Attrs: nounwind uwtable
define internal noundef i32 @cf_socket_cntrl(ptr noundef readonly captures(none) %0, ptr noundef %1, i32 noundef %2, i32 %3, ptr readnone captures(none) %4) #2 {
  %6 = getelementptr inbounds nuw i8, ptr %0, i64 16
  %7 = load ptr, ptr %6, align 8
  switch i32 %2, label %52 [
    i32 256, label %8
    i32 4, label %44
    i32 257, label %50
  ]

8:                                                ; preds = %5
  %9 = getelementptr inbounds nuw i8, ptr %7, i64 152
  %10 = load i32, ptr %9, align 8
  %11 = getelementptr inbounds nuw i8, ptr %0, i64 24
  %12 = load ptr, ptr %11, align 8
  %13 = getelementptr inbounds nuw i8, ptr %12, i64 392
  %14 = getelementptr inbounds nuw i8, ptr %0, i64 32
  %15 = load i32, ptr %14, align 8
  %16 = sext i32 %15 to i64
  %17 = getelementptr inbounds [2 x i32], ptr %13, i64 0, i64 %16
  store i32 %10, ptr %17, align 4
  %18 = load i32, ptr %14, align 8
  %19 = icmp eq i32 %18, 0
  br i1 %19, label %20, label %._crit_edge.i

._crit_edge.i:                                    ; preds = %8
  %.phi.trans.insert.i = getelementptr inbounds nuw i8, ptr %7, i64 380
  %.pre.i = load i8, ptr %.phi.trans.insert.i, align 4
  br label %cf_socket_active.exit

20:                                               ; preds = %8
  %21 = getelementptr inbounds nuw i8, ptr %7, i64 8
  %22 = load ptr, ptr %11, align 8
  %23 = getelementptr inbounds nuw i8, ptr %22, i64 56
  store ptr %21, ptr %23, align 8
  %24 = load i32, ptr %21, align 8
  %25 = icmp eq i32 %24, 10
  %26 = load ptr, ptr %11, align 8
  %27 = getelementptr inbounds nuw i8, ptr %26, i64 672
  %28 = load i32, ptr %27, align 8
  %29 = select i1 %25, i32 4096, i32 0
  %30 = and i32 %28, -4097
  %31 = or disjoint i32 %30, %29
  store i32 %31, ptr %27, align 8
  %.val.i = load ptr, ptr %6, align 8
  %.val19.i = load ptr, ptr %11, align 8
  %32 = getelementptr inbounds nuw i8, ptr %.val19.i, i64 256
  %33 = getelementptr inbounds nuw i8, ptr %.val.i, i64 224
  tail call void @llvm.memcpy.p0.p0.i64(ptr noundef nonnull align 8 dereferenceable(46) %32, ptr noundef nonnull readonly align 8 dereferenceable(46) %33, i64 46, i1 false)
  %.val20.i = load ptr, ptr %6, align 8
  tail call fastcc void @set_local_ip(ptr %.val20.i, ptr noundef %1)
  %34 = load ptr, ptr %11, align 8
  %35 = getelementptr inbounds nuw i8, ptr %7, i64 276
  %36 = getelementptr inbounds nuw i8, ptr %7, i64 324
  %37 = load i32, ptr %36, align 4
  tail call void @Curl_persistconninfo(ptr noundef %1, ptr noundef %34, ptr noundef nonnull %35, i32 noundef %37) #13
  %38 = getelementptr inbounds nuw i8, ptr %7, i64 380
  %39 = load i8, ptr %38, align 4
  %40 = and i8 %39, -17
  br label %cf_socket_active.exit

cf_socket_active.exit:                            ; preds = %._crit_edge.i, %20
  %41 = phi i8 [ %.pre.i, %._crit_edge.i ], [ %40, %20 ]
  %42 = getelementptr inbounds nuw i8, ptr %7, i64 380
  %43 = or i8 %41, 8
  store i8 %43, ptr %42, align 4
  br label %52

44:                                               ; preds = %5
  %45 = getelementptr inbounds nuw i8, ptr %0, i64 24
  %46 = load ptr, ptr %45, align 8
  %47 = getelementptr inbounds nuw i8, ptr %7, i64 276
  %48 = getelementptr inbounds nuw i8, ptr %7, i64 324
  %49 = load i32, ptr %48, align 4
  tail call void @Curl_persistconninfo(ptr noundef %1, ptr noundef %46, ptr noundef nonnull %47, i32 noundef %49) #13
  br label %52

50:                                               ; preds = %5
  %51 = getelementptr inbounds nuw i8, ptr %7, i64 152
  store i32 -1, ptr %51, align 8
  br label %52

52:                                               ; preds = %50, %44, %cf_socket_active.exit, %5
  ret i32 0
}